; Function Attrs: mustprogress uwtable
define void @_Z24logInitialMultisimStatusPK14gmx_multisim_tPK9t_commrecRKN3gmx8MDLoggerEbii(ptr noundef %0, ptr nocapture noundef readonly %1, ptr nocapture noundef nonnull readonly align 8 dereferenceable(40) %2, i1 noundef zeroext %3, i32 noundef %4, i32 noundef %5) local_unnamed_addr #0 personality ptr @__gxx_personality_v0 {
  %7 = alloca %"class.gmx::LogEntryWriter", align 8
  %8 = alloca %"class.std::filesystem::__cxx11::path", align 8
  %9 = alloca %"class.gmx::LogEntryWriter", align 8
  %10 = sext i32 %4 to i64
  %11 = tail call fastcc noundef zeroext i1 @_ZL26multisim_int_all_are_equalPK14gmx_multisim_tl(ptr noundef %0, i64 noundef %10)
  br i1 %11, label %23, label %12

12:                                               ; preds = %6
  %13 = load ptr, ptr %2, align 8
  %14 = icmp eq ptr %13, null
  br i1 %14, label %23, label %15

15:                                               ; preds = %12
  call void @llvm.memset.p0.i64(ptr noundef nonnull align 8 dereferenceable(40) %7, i8 0, i64 40, i1 false)
  call void @_ZNSt7__cxx1112basic_stringIcSt11char_traitsIcESaIcEEC1Ev(ptr noundef nonnull align 8 dereferenceable(32) %7) #19
  %16 = getelementptr inbounds i8, ptr %7, i64 32
  store i8 0, ptr %16, align 8
  %17 = invoke noundef nonnull align 8 dereferenceable(32) ptr @_ZNSt7__cxx1112basic_stringIcSt11char_traitsIcESaIcEE6appendEPKc(ptr noundef nonnull align 8 dereferenceable(32) %7, ptr noundef nonnull @.str.17)
          to label %_ZN3gmx14LogEntryWriter10appendTextEPKc.exit unwind label %21

_ZN3gmx14LogEntryWriter10appendTextEPKc.exit:     ; preds = %15
  %18 = load ptr, ptr %13, align 8
  %19 = getelementptr inbounds i8, ptr %18, i64 16
  %20 = load ptr, ptr %19, align 8
  invoke void %20(ptr noundef nonnull align 8 dereferenceable(8) %13, ptr noundef nonnull align 8 dereferenceable(33) %7)
          to label %_ZN3gmx14LogWriteHelperaSERKNS_14LogEntryWriterE.exit unwind label %21

_ZN3gmx14LogWriteHelperaSERKNS_14LogEntryWriterE.exit: ; preds = %_ZN3gmx14LogEntryWriter10appendTextEPKc.exit
  call void @_ZNSt7__cxx1112basic_stringIcSt11char_traitsIcESaIcEED1Ev(ptr noundef nonnull align 8 dereferenceable(32) %7) #19
  br label %23

21:                                               ; preds = %_ZN3gmx14LogEntryWriter10appendTextEPKc.exit, %15
  %22 = landingpad { ptr, i32 }
          cleanup
  call void @_ZNSt7__cxx1112basic_stringIcSt11char_traitsIcESaIcEED1Ev(ptr noundef nonnull align 8 dereferenceable(32) %7) #19
  br label %54

23:                                               ; preds = %_ZN3gmx14LogWriteHelperaSERKNS_14LogEntryWriterE.exit, %12, %6
  %24 = sext i32 %5 to i64
  %25 = call fastcc noundef zeroext i1 @_ZL26multisim_int_all_are_equalPK14gmx_multisim_tl(ptr noundef %0, i64 noundef %24)
  br i1 %25, label %53, label %26

26:                                               ; preds = %23
  br i1 %3, label %27, label %42

27:                                               ; preds = %26
  %28 = getelementptr inbounds i8, ptr %1, i64 52
  %29 = load i32, ptr %28, align 4
  %30 = icmp eq i32 %29, 0
  br i1 %30, label %35, label %31

31:                                               ; preds = %27
  %32 = getelementptr inbounds i8, ptr %1, i64 48
  %33 = load i32, ptr %32, align 8
  %34 = icmp sgt i32 %33, 1
  br i1 %34, label %39, label %35

35:                                               ; preds = %31, %27
  call void @_ZNSt10filesystem7__cxx114pathC2IA131_cS1_EERKT_NS1_6formatE(ptr noundef nonnull align 8 dereferenceable(40) %8, ptr noundef nonnull align 1 dereferenceable(131) @.str.1, i8 noundef zeroext 2)
  invoke void (i32, ptr, i32, ptr, ...) @_Z9gmx_fataliRKNSt10filesystem7__cxx114pathEiPKcz(i32 noundef 0, ptr noundef nonnull align 8 dereferenceable(40) %8, i32 noundef 434, ptr noundef nonnull @.str.18) #20
          to label %36 unwind label %37

36:                                               ; preds = %35
  unreachable

37:                                               ; preds = %35
  %38 = landingpad { ptr, i32 }
          cleanup
  call void @_ZNSt10filesystem7__cxx114pathD2Ev(ptr noundef nonnull align 8 dereferenceable(40) %8) #19
  br label %54

39:                                               ; preds = %31
  %40 = getelementptr inbounds i8, ptr %1, i64 24
  %41 = load ptr, ptr %40, align 8
  call void @_Z11gmx_barrierP10tmpi_comm_(ptr noundef %41)
  br label %53

42:                                               ; preds = %26
  %43 = load ptr, ptr %2, align 8
  %44 = icmp eq ptr %43, null
  br i1 %44, label %53, label %45

45:                                               ; preds = %42
  call void @llvm.memset.p0.i64(ptr noundef nonnull align 8 dereferenceable(40) %9, i8 0, i64 40, i1 false)
  call void @_ZNSt7__cxx1112basic_stringIcSt11char_traitsIcESaIcEEC1Ev(ptr noundef nonnull align 8 dereferenceable(32) %9) #19
  %46 = getelementptr inbounds i8, ptr %9, i64 32
  store i8 0, ptr %46, align 8
  %47 = invoke noundef nonnull align 8 dereferenceable(32) ptr @_ZNSt7__cxx1112basic_stringIcSt11char_traitsIcESaIcEE6appendEPKc(ptr noundef nonnull align 8 dereferenceable(32) %9, ptr noundef nonnull @.str.19)
          to label %_ZN3gmx14LogEntryWriter10appendTextEPKc.exit13 unwind label %51

_ZN3gmx14LogEntryWriter10appendTextEPKc.exit13:   ; preds = %45
  %48 = load ptr, ptr %43, align 8
  %49 = getelementptr inbounds i8, ptr %48, i64 16
  %50 = load ptr, ptr %49, align 8
  invoke void %50(ptr noundef nonnull align 8 dereferenceable(8) %43, ptr noundef nonnull align 8 dereferenceable(33) %9)
          to label %_ZN3gmx14LogWriteHelperaSERKNS_14LogEntryWriterE.exit14 unwind label %51

_ZN3gmx14LogWriteHelperaSERKNS_14LogEntryWriterE.exit14: ; preds = %_ZN3gmx14LogEntryWriter10appendTextEPKc.exit13
  call void @_ZNSt7__cxx1112basic_stringIcSt11char_traitsIcESaIcEED1Ev(ptr noundef nonnull align 8 dereferenceable(32) %9) #19
  br label %53

51:                                               ; preds = %_ZN3gmx14LogEntryWriter10appendTextEPKc.exit13, %45
  %52 = landingpad { ptr, i32 }
          cleanup
  call void @_ZNSt7__cxx1112basic_stringIcSt11char_traitsIcESaIcEED1Ev(ptr noundef nonnull align 8 dereferenceable(32) %9) #19
  br label %54

53:                                               ; preds = %39, %42, %_ZN3gmx14LogWriteHelperaSERKNS_14LogEntryWriterE.exit14, %23
  ret void

54:                                               ; preds = %51, %37, %21
  %.pn = phi { ptr, i32 } [ %38, %37 ], [ %52, %51 ], [ %22, %21 ]
  resume { ptr, i32 } %.pn
}